Certificate:
    Data:
        Version: 3 (0x2)
        Serial Number: 257 (0x101)
        Signature Algorithm: sha256WithRSAEncryption
        Issuer: C=ES, ST=Madrid, O=0, OU=0, CN=0/emailAddress=0
        Validity
            Not Before: Dec  7 16:51:22 2021 GMT
            Not After : Dec  7 16:51:22 2022 GMT
        Subject: C=ES, ST=Madrid, O=0, OU=0, CN=0/emailAddress=0
        Subject Public Key Info:
            Public Key Algorithm: rsaEncryption
                RSA Public-Key: (2048 bit)
                Modulus:
                    00:b1:2e:3f:1e:e3:73:cb:4f:d7:61:3f:1c:96:09:
                    37:9e:ba:74:62:28:d6:bd:e1:5e:de:61:82:ad:33:
                    46:83:c6:a8:fd:b8:b4:e3:bd:25:81:e7:8f:6b:d6:
                    84:fb:38:49:5d:b8:83:b3:59:ce:b9:54:d5:b2:41:
                    4b:d2:6f:27:90:35:e0:cb:f1:92:7f:18:31:86:c1:
                    f1:68:89:0a:df:aa:08:ef:33:77:36:91:ad:7f:d1:
                    c8:94:d6:d1:3f:dd:98:a1:ff:fe:d2:a6:de:cd:4e:
                    46:a1:8c:33:2c:94:ff:75:6d:80:1f:c5:31:7b:35:
                    51:d5:a5:71:35:6b:58:ae:ac:f7:1e:43:56:59:b4:
                    36:a1:12:76:cd:63:18:c6:37:c3:fc:77:b2:e3:91:
                    a4:44:23:5a:ca:f8:f7:bb:aa:99:c2:ef:55:eb:a0:
                    51:ba:e1:87:df:ba:7b:44:bc:22:ab:92:5a:84:2e:
                    98:a5:f3:09:da:82:fb:ac:14:42:f0:ec:6f:0c:bf:
                    2a:8d:b1:76:a6:62:e3:5c:db:bd:d4:ae:3c:31:bb:
                    4c:88:63:50:ee:76:8c:6a:d0:74:1e:68:a8:20:86:
                    b3:07:c2:3e:0c:44:41:7a:f7:4d:f3:4a:05:66:83:
                    20:a3:3c:41:b8:16:43:f3:d0:17:7f:a3:37:fe:3f:
                    9e:ad
                Exponent: 65537 (0x10001)
        X509v3 extensions:
            X509v3 Basic Constraints: 
                CA:FALSE
            Netscape Comment: 
                OpenSSL Generated Certificate
            X509v3 Subject Key Identifier: 
                11:EA:58:48:9C:33:69:5B:D5:4D:9E:1B:34:7D:4B:55:5F:DB:2F:5E
            X509v3 Authority Key Identifier: 
                keyid:24:7F:6D:4B:76:B4:94:4F:8C:07:EA:F2:11:A5:DB:D0:6F:15:CE:85

    Signature Algorithm: sha256WithRSAEncryption
         96:5a:ba:94:ee:6c:ea:61:ae:fb:9f:7a:dc:71:f7:15:eb:c4:
         ac:e7:ae:b8:1e:ba:0b:41:84:f4:d6:e5:b7:39:b9:8e:7b:59:
         f2:8f:ce:32:50:a4:d3:47:6e:fb:4f:a1:1d:70:f4:af:ca:38:
         01:9a:82:f8:0a:fb:ad:ef:2e:36:4b:a1:e3:50:b7:56:77:ee:
         6e:b0:87:93:f2:c7:92:06:52:b2:85:11:7e:30:f1:3f:58:6a:
         72:25:5d:42:5d:1a:d0:82:e5:69:c1:a8:b6:f7:4b:9c:31:9b:
         8c:19:26:5f:fe:82:90:e2:6e:9a:5c:1f:8c:9e:6a:c3:c9:43:
         c0:41:28:8c:93:ee:5a:df:3a:04:81:b9:de:b0:c3:26:57:67:
         18:b0:a5:26:44:38:66:6a:c1:c5:77:99:1a:df:a4:a7:e1:56:
         8f:37:a0:b3:40:b0:56:ca:ce:91:10:f3:4b:ca:14:10:56:06:
         fe:6a:fa:64:fc:33:01:f8:2e:96:26:05:f6:aa:76:af:f8:fd:
         51:1f:3e:13:8c:e7:e4:ac:c1:37:5a:55:d5:f3:a0:4c:30:ad:
         9f:86:6e:53:7c:3a:f7:b4:b3:4f:64:e5:08:f8:4c:d1:14:bf:
         e2:c2:b7:92:1e:89:40:26:bd:9c:27:ca:c5:d1:c6:6c:93:6a:
         e9:a8:66:fc
-----BEGIN CERTIFICATE-----
MIIDnzCCAoegAwIBAgICAQEwDQYJKoZIhvcNAQELBQAwVDELMAkGA1UEBhMCRVMx
DzANBgNVBAgMBk1hZHJpZDEKMAgGA1UECgwBMDEKMAgGA1UECwwBMDEKMAgGA1UE
AwwBMDEQMA4GCSqGSIb3DQEJARYBMDAeFw0yMTEyMDcxNjUxMjJaFw0yMjEyMDcx
NjUxMjJaMFQxCzAJBgNVBAYTAkVTMQ8wDQYDVQQIDAZNYWRyaWQxCjAIBgNVBAoM
ATAxCjAIBgNVBAsMATAxCjAIBgNVBAMMATAxEDAOBgkqhkiG9w0BCQEWATAwggEi
MA0GCSqGSIb3DQEBAQUAA4IBDwAwggEKAoIBAQCxLj8e43PLT9dhPxyWCTeeunRi
KNa94V7eYYKtM0aDxqj9uLTjvSWB549r1oT7OElduIOzWc65VNWyQUvSbyeQNeDL
8ZJ/GDGGwfFoiQrfqgjvM3c2ka1/0ciU1tE/3Zih//7Spt7NTkahjDMslP91bYAf
xTF7NVHVpXE1a1iurPceQ1ZZtDahEnbNYxjGN8P8d7LjkaREI1rK+Pe7qpnC71Xr
oFG64YffuntEvCKrklqELpil8wnagvusFELw7G8MvyqNsXamYuNc273Urjwxu0yI
Y1Dudoxq0HQeaKgghrMHwj4MREF6903zSgVmgyCjPEG4FkPz0Bd/ozf+P56tAgMB
AAGjezB5MAkGA1UdEwQCMAAwLAYJYIZIAYb4QgENBB8WHU9wZW5TU0wgR2VuZXJh
dGVkIENlcnRpZmljYXRlMB0GA1UdDgQWBBQR6lhInDNpW9VNnhs0fUtVX9svXjAf
BgNVHSMEGDAWgBQkf21LdrSUT4wH6vIRpdvQbxXOhTANBgkqhkiG9w0BAQsFAAOC
AQEAllq6lO5s6mGu+5963HH3FevErOeuuB66C0GE9Nbltzm5jntZ8o/OMlCk00du
+0+hHXD0r8o4AZqC+Ar7re8uNkuh41C3VnfubrCHk/LHkgZSsoURfjDxP1hqciVd
Ql0a0ILlacGotvdLnDGbjBkmX/6CkOJumlwfjJ5qw8lDwEEojJPuWt86BIG53rDD
JldnGLClJkQ4ZmrBxXeZGt+kp+FWjzegs0CwVsrOkRDzS8oUEFYG/mr6ZPwzAfgu
liYF9qp2r/j9UR8+E4zn5KzBN1pV1fOgTDCtn4ZuU3w697SzT2TlCPhM0RS/4sK3
kh6JQCa9nCfKxdHGbJNq6ahm/A==
-----END CERTIFICATE-----
