Certificate:
    Data:
        Version: 3 (0x2)
        Serial Number: 258 (0x102)
        Signature Algorithm: sha256WithRSAEncryption
        Issuer: C=ES, ST=Madrid, O=0, OU=0, CN=0/emailAddress=0
        Validity
            Not Before: Dec  7 16:57:28 2021 GMT
            Not After : Dec  7 16:57:28 2022 GMT
        Subject: C=ES, ST=Madrid, O=1, OU=a, CN=a/emailAddress=a
        Subject Public Key Info:
            Public Key Algorithm: rsaEncryption
                RSA Public-Key: (2048 bit)
                Modulus:
                    00:f6:44:d1:51:0b:12:ac:58:89:6b:e2:98:01:81:
                    1d:67:38:66:48:9f:c5:7a:de:a4:d0:44:2e:29:af:
                    24:76:fd:a4:77:c4:eb:6b:5c:6c:72:09:07:84:b0:
                    d4:93:2c:1b:5d:92:eb:a3:10:f5:17:02:be:19:ba:
                    d8:fd:2c:99:eb:f6:d5:05:5c:21:4a:71:4a:df:3b:
                    85:cd:37:8a:41:e6:2d:ea:b8:3a:02:ba:6a:6a:ac:
                    56:e1:93:e9:c0:ba:af:74:f6:a6:6b:24:05:97:b7:
                    e5:67:fd:a5:2c:f1:9d:02:de:11:ba:b5:57:9f:87:
                    c0:9d:5f:09:82:ce:91:dc:cc:5f:66:7a:d1:79:95:
                    68:80:49:b6:c2:ba:29:ec:11:ae:ea:ba:a2:28:2f:
                    e7:ce:56:54:b3:b7:84:b9:cb:97:e1:bd:4a:5a:a4:
                    fc:2a:0e:8d:2d:36:f2:57:be:f3:8d:4a:ad:c0:36:
                    f1:b9:93:ea:bc:45:37:84:07:23:7b:72:49:6a:9f:
                    56:86:64:10:80:4e:99:0b:f3:b8:4f:ed:c8:b1:d9:
                    42:3f:c5:29:99:0f:f1:56:14:44:5c:bf:42:74:cb:
                    78:83:e4:6d:63:76:4b:d6:72:29:60:00:4f:1c:cd:
                    99:fd:13:5e:89:dc:99:e5:4f:85:b7:8b:7b:6f:6c:
                    41:3b
                Exponent: 65537 (0x10001)
        X509v3 extensions:
            X509v3 Basic Constraints: 
                CA:FALSE
            Netscape Comment: 
                OpenSSL Generated Certificate
            X509v3 Subject Key Identifier: 
                8A:F6:6A:B2:65:FF:70:6B:3D:74:9E:F1:63:F6:E8:F1:44:89:15:0D
            X509v3 Authority Key Identifier: 
                keyid:24:7F:6D:4B:76:B4:94:4F:8C:07:EA:F2:11:A5:DB:D0:6F:15:CE:85

    Signature Algorithm: sha256WithRSAEncryption
         71:67:16:5d:c4:77:c2:96:c9:21:0c:ab:55:bf:7f:6d:e9:90:
         d7:ae:27:a0:2f:f1:5a:f1:4b:32:39:e0:8d:00:0a:29:9a:33:
         47:f7:c6:13:9a:19:b7:ab:96:69:23:b9:f1:4c:b9:5f:80:42:
         7a:9e:64:ab:bc:74:0c:d0:17:31:3e:b4:ad:ec:c1:98:0d:54:
         f1:df:a6:f5:51:ed:3f:c0:89:c6:6d:ed:2f:a6:28:e2:37:a3:
         fd:de:28:b2:ae:34:ad:c9:5a:09:c6:44:ec:9a:71:5e:05:38:
         c0:bc:27:f5:92:00:d0:3e:ab:97:62:8f:49:5f:40:af:17:94:
         79:c6:c5:8b:31:30:21:e6:5a:9b:59:ff:f6:24:f3:96:65:0e:
         0d:7b:56:47:d5:ca:f8:4c:82:fa:6f:4a:ac:fc:89:69:dc:54:
         34:6b:35:5f:a2:60:30:63:94:47:3f:9f:78:66:3a:50:c5:99:
         07:7c:c4:32:d8:39:b2:c1:13:be:96:c6:c9:a5:90:d1:8e:3e:
         f3:7b:9b:26:3f:1c:b9:d6:7c:8b:e8:3d:b3:1e:0a:13:30:9f:
         23:29:97:b0:3f:73:41:98:50:3b:6b:fd:bd:a3:4b:85:a2:66:
         9c:c8:c3:93:2a:ce:52:d5:2c:64:99:ba:d4:73:b2:4b:42:d4:
         47:5d:4d:08
-----BEGIN CERTIFICATE-----
MIIDnzCCAoegAwIBAgICAQIwDQYJKoZIhvcNAQELBQAwVDELMAkGA1UEBhMCRVMx
DzANBgNVBAgMBk1hZHJpZDEKMAgGA1UECgwBMDEKMAgGA1UECwwBMDEKMAgGA1UE
AwwBMDEQMA4GCSqGSIb3DQEJARYBMDAeFw0yMTEyMDcxNjU3MjhaFw0yMjEyMDcx
NjU3MjhaMFQxCzAJBgNVBAYTAkVTMQ8wDQYDVQQIDAZNYWRyaWQxCjAIBgNVBAoM
ATExCjAIBgNVBAsMAWExCjAIBgNVBAMMAWExEDAOBgkqhkiG9w0BCQEWAWEwggEi
MA0GCSqGSIb3DQEBAQUAA4IBDwAwggEKAoIBAQD2RNFRCxKsWIlr4pgBgR1nOGZI
n8V63qTQRC4pryR2/aR3xOtrXGxyCQeEsNSTLBtdkuujEPUXAr4Zutj9LJnr9tUF
XCFKcUrfO4XNN4pB5i3quDoCumpqrFbhk+nAuq909qZrJAWXt+Vn/aUs8Z0C3hG6
tVefh8CdXwmCzpHczF9metF5lWiASbbCuinsEa7quqIoL+fOVlSzt4S5y5fhvUpa
pPwqDo0tNvJXvvONSq3ANvG5k+q8RTeEByN7cklqn1aGZBCATpkL87hP7cix2UI/
xSmZD/FWFERcv0J0y3iD5G1jdkvWcilgAE8czZn9E16J3JnlT4W3i3tvbEE7AgMB
AAGjezB5MAkGA1UdEwQCMAAwLAYJYIZIAYb4QgENBB8WHU9wZW5TU0wgR2VuZXJh
dGVkIENlcnRpZmljYXRlMB0GA1UdDgQWBBSK9mqyZf9waz10nvFj9ujxRIkVDTAf
BgNVHSMEGDAWgBQkf21LdrSUT4wH6vIRpdvQbxXOhTANBgkqhkiG9w0BAQsFAAOC
AQEAcWcWXcR3wpbJIQyrVb9/bemQ164noC/xWvFLMjngjQAKKZozR/fGE5oZt6uW
aSO58Uy5X4BCep5kq7x0DNAXMT60rezBmA1U8d+m9VHtP8CJxm3tL6Yo4jej/d4o
sq40rclaCcZE7JpxXgU4wLwn9ZIA0D6rl2KPSV9ArxeUecbFizEwIeZam1n/9iTz
lmUODXtWR9XK+EyC+m9KrPyJadxUNGs1X6JgMGOURz+feGY6UMWZB3zEMtg5ssET
vpbGyaWQ0Y4+83ubJj8cudZ8i+g9sx4KEzCfIymXsD9zQZhQO2v9vaNLhaJmnMjD
kyrOUtUsZJm61HOyS0LUR11NCA==
-----END CERTIFICATE-----
