Certificate:
    Data:
        Version: 3 (0x2)
        Serial Number: 256 (0x100)
        Signature Algorithm: sha256WithRSAEncryption
        Issuer: C=ES, ST=Madrid, L=Madrid, O=0
        Validity
            Not Before: Dec  7 12:38:48 2021 GMT
            Not After : Dec  7 12:38:48 2022 GMT
        Subject: C=ES, ST=Madrid, O=0, OU=0, CN=0/emailAddress=0
        Subject Public Key Info:
            Public Key Algorithm: rsaEncryption
                RSA Public-Key: (2048 bit)
                Modulus:
                    00:d2:64:5f:e0:25:06:06:f1:0c:cd:19:00:79:e9:
                    34:59:b1:fc:ed:cd:60:cc:f3:f1:39:12:63:9e:95:
                    2e:d3:87:87:5d:1c:1d:ab:fb:4b:28:71:e2:8f:ee:
                    2b:dd:db:4a:57:52:7a:99:14:5c:3e:73:d5:57:6b:
                    e9:2d:b9:27:3d:30:6c:11:6a:34:6d:5d:46:f5:60:
                    9b:76:76:36:3e:4c:de:9e:f2:91:f6:75:79:0e:05:
                    1c:99:5a:ec:ee:61:e4:91:36:e3:56:1d:08:11:58:
                    29:9a:a8:95:fa:3f:2e:20:29:ce:e7:30:b9:7e:aa:
                    e7:6c:cc:2b:27:2c:dd:15:5d:74:37:77:cd:b1:f1:
                    fe:ec:60:e6:c8:1a:a5:32:87:bc:07:27:10:52:9d:
                    db:ae:cb:47:82:21:79:3f:da:73:15:59:97:f2:d6:
                    a3:93:45:ac:a5:a0:c1:00:8a:b3:cd:37:f5:86:d7:
                    f0:5a:b2:54:0e:ea:db:98:d6:b6:88:c7:ba:ba:15:
                    8a:17:c3:52:b7:f0:8d:9b:56:fb:0e:7a:46:d1:8b:
                    e2:75:0f:94:db:fe:37:0e:7d:82:fc:1e:99:55:fe:
                    23:43:8a:91:0d:10:35:40:02:c2:43:cd:a7:79:72:
                    a0:cd:1e:a4:9a:62:44:9e:c5:bd:3b:1e:e4:1a:e1:
                    2c:6d
                Exponent: 65537 (0x10001)
        X509v3 extensions:
            X509v3 Subject Key Identifier: 
                24:7F:6D:4B:76:B4:94:4F:8C:07:EA:F2:11:A5:DB:D0:6F:15:CE:85
            X509v3 Authority Key Identifier: 
                keyid:BE:A2:51:70:BF:70:FC:5B:EB:E8:CC:6A:55:9F:F7:91:E1:87:FF:26

            X509v3 Basic Constraints: critical
                CA:TRUE
    Signature Algorithm: sha256WithRSAEncryption
         76:7a:6d:53:d5:73:53:f3:5e:7a:61:97:a3:e6:49:05:6c:18:
         af:cc:cd:bc:d8:14:04:6b:8e:ea:2e:cb:19:cb:68:d9:07:21:
         22:25:3d:be:f8:d9:81:47:9d:71:09:ef:71:8e:6c:82:c5:29:
         94:da:f4:b7:2f:f1:8f:57:5d:5d:38:32:d1:55:f1:d8:1f:d6:
         a4:b5:c6:8e:31:41:7a:13:14:fe:98:90:5f:19:13:f2:5a:3d:
         a9:b7:74:95:c9:e4:34:4e:28:6b:b6:db:83:d7:18:29:0a:df:
         5c:b4:ec:06:33:bd:a2:4b:bc:24:e6:51:43:e7:11:f9:b0:7b:
         70:6c:36:fb:aa:96:2a:25:4c:08:55:59:d1:5d:ee:58:a9:6e:
         3f:e3:5b:5f:94:e7:5c:28:88:cf:27:0f:20:68:8a:aa:96:67:
         d8:33:0c:3a:0c:14:9b:f8:47:23:a8:37:8f:95:67:d3:30:bc:
         09:a4:b4:3f:3a:3f:43:93:aa:2b:4f:70:f7:a1:7e:da:e9:07:
         27:f9:fe:9e:f2:62:51:c2:a5:90:b4:55:39:18:6a:d0:40:65:
         5f:ed:22:84:06:45:2f:70:8c:7c:10:32:b4:15:b8:b9:08:e5:
         a4:89:23:d4:48:b4:83:37:61:ae:4a:91:86:60:d0:24:90:95:
         7f:24:1f:8d
-----BEGIN CERTIFICATE-----
MIIDXjCCAkagAwIBAgICAQAwDQYJKoZIhvcNAQELBQAwOzELMAkGA1UEBhMCRVMx
DzANBgNVBAgMBk1hZHJpZDEPMA0GA1UEBwwGTWFkcmlkMQowCAYDVQQKDAEwMB4X
DTIxMTIwNzEyMzg0OFoXDTIyMTIwNzEyMzg0OFowVDELMAkGA1UEBhMCRVMxDzAN
BgNVBAgMBk1hZHJpZDEKMAgGA1UECgwBMDEKMAgGA1UECwwBMDEKMAgGA1UEAwwB
MDEQMA4GCSqGSIb3DQEJARYBMDCCASIwDQYJKoZIhvcNAQEBBQADggEPADCCAQoC
ggEBANJkX+AlBgbxDM0ZAHnpNFmx/O3NYMzz8TkSY56VLtOHh10cHav7Syhx4o/u
K93bSldSepkUXD5z1Vdr6S25Jz0wbBFqNG1dRvVgm3Z2Nj5M3p7ykfZ1eQ4FHJla
7O5h5JE241YdCBFYKZqolfo/LiApzucwuX6q52zMKycs3RVddDd3zbHx/uxg5sga
pTKHvAcnEFKd267LR4IheT/acxVZl/LWo5NFrKWgwQCKs8039YbX8FqyVA7q25jW
tojHuroVihfDUrfwjZtW+w56RtGL4nUPlNv+Nw59gvwemVX+I0OKkQ0QNUACwkPN
p3lyoM0epJpiRJ7FvTse5BrhLG0CAwEAAaNTMFEwHQYDVR0OBBYEFCR/bUt2tJRP
jAfq8hGl29BvFc6FMB8GA1UdIwQYMBaAFL6iUXC/cPxb6+jMalWf95Hhh/8mMA8G
A1UdEwEB/wQFMAMBAf8wDQYJKoZIhvcNAQELBQADggEBAHZ6bVPVc1PzXnphl6Pm
SQVsGK/MzbzYFARrjuouyxnLaNkHISIlPb742YFHnXEJ73GObILFKZTa9Lcv8Y9X
XV04MtFV8dgf1qS1xo4xQXoTFP6YkF8ZE/JaPam3dJXJ5DROKGu224PXGCkK31y0
7AYzvaJLvCTmUUPnEfmwe3BsNvuqliolTAhVWdFd7lipbj/jW1+U51woiM8nDyBo
iqqWZ9gzDDoMFJv4RyOoN4+VZ9MwvAmktD86P0OTqitPcPehftrpByf5/p7yYlHC
pZC0VTkYatBAZV/tIoQGRS9wjHwQMrQVuLkI5aSJI9RItIM3Ya5KkYZg0CSQlX8k
H40=
-----END CERTIFICATE-----
