Certificate:
    Data:
        Version: 3 (0x2)
        Serial Number: 256 (0x100)
        Signature Algorithm: sha256WithRSAEncryption
        Issuer: C=ES, ST=Madrid, O=0, OU=0, CN=0/emailAddress=0
        Validity
            Not Before: Dec  7 12:43:49 2021 GMT
            Not After : Dec  7 12:43:49 2022 GMT
        Subject: C=ES, ST=Madrid, O=0, OU=0, CN=0/emailAddress=0
        Subject Public Key Info:
            Public Key Algorithm: rsaEncryption
                RSA Public-Key: (2048 bit)
                Modulus:
                    00:f2:b8:3b:13:4d:8f:78:18:82:88:f4:21:8f:21:
                    2b:a0:9a:a2:8f:6a:17:a0:a7:6f:a5:22:d7:53:12:
                    dd:00:ac:8d:5b:dd:60:1c:00:c8:a8:89:04:6d:b6:
                    84:05:73:f8:87:ff:48:c5:76:75:4f:24:b0:e7:b7:
                    75:3d:c2:19:34:97:f4:d9:cf:15:87:a9:ef:52:83:
                    7d:41:b6:c7:7f:a4:98:6d:76:8d:63:3e:bf:bf:e4:
                    35:f9:1c:9f:b7:70:10:02:c5:37:c1:8e:c3:86:93:
                    72:cf:1c:78:d1:ec:b2:87:0e:7c:17:5e:eb:5c:81:
                    a4:10:6c:43:51:06:e9:ed:5a:df:3f:6a:b8:4b:1b:
                    49:a6:7a:d3:56:91:7c:64:c9:6d:6e:48:84:28:a2:
                    47:b5:69:f8:6d:82:7c:a7:6f:41:1c:2c:d3:73:9b:
                    5c:b9:20:20:8d:0a:64:d5:1f:aa:1b:0a:02:f7:c8:
                    d1:ea:40:35:83:a4:26:d6:fb:e5:5b:6e:cc:58:1f:
                    d1:43:1a:20:4f:27:43:16:54:5e:a7:b2:4a:62:df:
                    00:bd:27:48:ba:e9:1b:22:ca:da:b0:d4:84:f6:cc:
                    48:73:c5:4d:33:3c:02:df:ef:b7:28:bf:50:1c:0e:
                    c6:2f:b9:83:43:0c:6e:c7:7f:e8:f7:d8:01:ea:e2:
                    1c:13
                Exponent: 65537 (0x10001)
        X509v3 extensions:
            X509v3 Basic Constraints: 
                CA:FALSE
            Netscape Comment: 
                OpenSSL Generated Certificate
            X509v3 Subject Key Identifier: 
                2A:44:A3:5B:C1:BA:B8:E7:2B:6C:38:44:DE:B7:43:E9:7A:31:72:09
            X509v3 Authority Key Identifier: 
                keyid:24:7F:6D:4B:76:B4:94:4F:8C:07:EA:F2:11:A5:DB:D0:6F:15:CE:85

    Signature Algorithm: sha256WithRSAEncryption
         9b:c7:84:b0:53:a2:d0:ca:fe:09:25:d7:1b:d3:55:a6:1e:4e:
         c7:a8:7a:d5:ec:dd:07:d2:35:9d:33:3e:62:1c:ff:cd:e4:7e:
         fc:c2:0c:62:cf:e9:54:3b:5b:ef:c3:07:2b:23:b7:0c:9b:fe:
         7f:72:a5:ef:17:ad:32:c9:a0:0d:61:89:86:ab:19:85:f4:3f:
         c2:68:6b:10:14:ca:0f:34:5c:e8:12:50:00:ab:26:49:42:b0:
         e0:39:18:30:6b:33:a9:be:41:e2:50:ef:f0:ca:dd:7b:03:0a:
         53:f6:7e:fa:ec:14:a4:d9:08:a7:b8:04:63:aa:4c:6e:cf:6d:
         26:f7:c8:ac:1d:a0:96:03:7d:62:69:0e:ac:03:c4:f7:8f:8d:
         85:5a:55:21:cb:f0:43:5a:e5:bb:0e:77:c9:7a:87:aa:f7:d3:
         f5:f2:cc:f3:9a:1d:6a:65:57:f3:ff:cd:72:01:8b:b1:bd:ad:
         bd:2b:94:a2:0f:72:72:55:fb:a5:8b:07:31:77:d3:a9:23:32:
         9c:cd:2b:c5:61:59:38:20:ed:13:5e:de:44:bd:38:6a:66:4b:
         65:79:08:08:a4:a9:1f:e2:e1:04:f0:56:5e:b8:14:a9:78:fc:
         a9:66:d1:b5:6c:57:a8:92:85:52:8b:20:ef:31:49:26:a7:74:
         f7:ee:5c:ce
-----BEGIN CERTIFICATE-----
MIIDnzCCAoegAwIBAgICAQAwDQYJKoZIhvcNAQELBQAwVDELMAkGA1UEBhMCRVMx
DzANBgNVBAgMBk1hZHJpZDEKMAgGA1UECgwBMDEKMAgGA1UECwwBMDEKMAgGA1UE
AwwBMDEQMA4GCSqGSIb3DQEJARYBMDAeFw0yMTEyMDcxMjQzNDlaFw0yMjEyMDcx
MjQzNDlaMFQxCzAJBgNVBAYTAkVTMQ8wDQYDVQQIDAZNYWRyaWQxCjAIBgNVBAoM
ATAxCjAIBgNVBAsMATAxCjAIBgNVBAMMATAxEDAOBgkqhkiG9w0BCQEWATAwggEi
MA0GCSqGSIb3DQEBAQUAA4IBDwAwggEKAoIBAQDyuDsTTY94GIKI9CGPISugmqKP
ahegp2+lItdTEt0ArI1b3WAcAMioiQRttoQFc/iH/0jFdnVPJLDnt3U9whk0l/TZ
zxWHqe9Sg31Btsd/pJhtdo1jPr+/5DX5HJ+3cBACxTfBjsOGk3LPHHjR7LKHDnwX
XutcgaQQbENRBuntWt8/arhLG0mmetNWkXxkyW1uSIQooke1afhtgnynb0EcLNNz
m1y5ICCNCmTVH6obCgL3yNHqQDWDpCbW++VbbsxYH9FDGiBPJ0MWVF6nskpi3wC9
J0i66Rsiytqw1IT2zEhzxU0zPALf77cov1AcDsYvuYNDDG7Hf+j32AHq4hwTAgMB
AAGjezB5MAkGA1UdEwQCMAAwLAYJYIZIAYb4QgENBB8WHU9wZW5TU0wgR2VuZXJh
dGVkIENlcnRpZmljYXRlMB0GA1UdDgQWBBQqRKNbwbq45ytsOETet0PpejFyCTAf
BgNVHSMEGDAWgBQkf21LdrSUT4wH6vIRpdvQbxXOhTANBgkqhkiG9w0BAQsFAAOC
AQEAm8eEsFOi0Mr+CSXXG9NVph5Ox6h61ezdB9I1nTM+Yhz/zeR+/MIMYs/pVDtb
78MHKyO3DJv+f3Kl7xetMsmgDWGJhqsZhfQ/wmhrEBTKDzRc6BJQAKsmSUKw4DkY
MGszqb5B4lDv8MrdewMKU/Z++uwUpNkIp7gEY6pMbs9tJvfIrB2glgN9YmkOrAPE
94+NhVpVIcvwQ1rluw53yXqHqvfT9fLM85odamVX8//NcgGLsb2tvSuUog9yclX7
pYsHMXfTqSMynM0rxWFZOCDtE17eRL04amZLZXkICKSpH+LhBPBWXrgUqXj8qWbR
tWxXqJKFUosg7zFJJqd09+5czg==
-----END CERTIFICATE-----
